; Function Attrs: mustprogress nofree norecurse nosync nounwind memory(readwrite, inaccessiblemem: none) uwtable
define internal void @_ZL7_DoublemmPSt6vectorIiSaIiEE(i64 noundef %0, i64 noundef %1, ptr nocapture noundef readonly %2) #4 {
  %4 = icmp ult i64 %0, %1
  br i1 %4, label %.lr.ph, label %._crit_edge

.lr.ph:                                           ; preds = %3, %.lr.ph
  %.05 = phi i64 [ %9, %.lr.ph ], [ %0, %3 ]
  %5 = load ptr, ptr %2, align 8
  %6 = getelementptr inbounds i32, ptr %5, i64 %.05
  %7 = load i32, ptr %6, align 4
  %8 = shl nsw i32 %7, 1
  store i32 %8, ptr %6, align 4
  %9 = add nuw i64 %.05, 1
  %exitcond.not = icmp eq i64 %9, %1
  br i1 %exitcond.not, label %._crit_edge, label %.lr.ph, !llvm.loop !13

._crit_edge:                                      ; preds = %.lr.ph, %3
  ret void
}